#include <math.h>
#include <stdio.h>
#include <stdlib.h>
#include <string.h>

void main()
{
	char a[80][20],*p[80],**q,t;
	int i;
	for(i=0;i<80;i++)
		p[i]=a[i];
	for(q=p;;q++)
	{
		scanf("%s",*q);	
		t=getchar();
		if(t!=' ') break;
	}
	for(;q>p;q--)
		printf("%s ",*q);
	printf("%s",*q);
}